; Function Attrs: nounwind uwtable
define hidden i32 @opj_set_decoded_resolution_factor(ptr noundef %0, i32 noundef %1) local_unnamed_addr #2 {
  %.not = icmp eq ptr %0, null
  br i1 %.not, label %10, label %3

3:                                                ; preds = %2
  %4 = getelementptr inbounds nuw i8, ptr %0, i64 80
  %5 = load ptr, ptr %4, align 8, !tbaa !19
  %6 = getelementptr inbounds nuw i8, ptr %0, i64 96
  %7 = load ptr, ptr %6, align 8, !tbaa !21
  %8 = getelementptr inbounds nuw i8, ptr %0, i64 104
  %9 = tail call i32 %5(ptr noundef %7, i32 noundef %1, ptr noundef nonnull %8) #8
  br label %10

10:                                               ; preds = %2, %3
  %.0 = phi i32 [ %9, %3 ], [ 0, %2 ]
  ret i32 %.0
}